; ModuleID = '60/1083.c'
source_filename = "60/1083.c"
target datalayout = "e-m:e-p270:32:32-p271:32:32-p272:64:64-i64:64-f80:128-n8:16:32:64-S128"
target triple = "x86_64-pc-linux-gnu"

@.str = private unnamed_addr constant [3 x i8] c"%d\00", align 1
@.str.1 = private unnamed_addr constant [7 x i8] c"empty\0A\00", align 1
@.str.2 = private unnamed_addr constant [7 x i8] c"%d %d\0A\00", align 1

; Function Attrs: noinline nounwind uwtable
define dso_local i32 @sushu(i32 %0) #0 {
  %2 = alloca i32, align 4
  %3 = alloca i32, align 4
  %4 = alloca i32, align 4
  store i32 %0, i32* %2, align 4
  store i32 1, i32* %4, align 4
  store i32 2, i32* %3, align 4
  br label %5

5:                                                ; preds = %16, %1
  %6 = load i32, i32* %3, align 4
  %7 = load i32, i32* %2, align 4
  %8 = icmp slt i32 %6, %7
  br i1 %8, label %9, label %19

9:                                                ; preds = %5
  %10 = load i32, i32* %2, align 4
  %11 = load i32, i32* %3, align 4
  %12 = srem i32 %10, %11
  %13 = icmp eq i32 %12, 0
  br i1 %13, label %14, label %15

14:                                               ; preds = %9
  store i32 0, i32* %4, align 4
  br label %19

15:                                               ; preds = %9
  br label %16

16:                                               ; preds = %15
  %17 = load i32, i32* %3, align 4
  %18 = add nsw i32 %17, 1
  store i32 %18, i32* %3, align 4
  br label %5

19:                                               ; preds = %14, %5
  %20 = load i32, i32* %4, align 4
  ret i32 %20
}

; Function Attrs: noinline nounwind uwtable
define dso_local void @main() #0 {
  %1 = alloca i32, align 4
  %2 = alloca i32, align 4
  %3 = call i32 (i8*, ...) @__isoc99_scanf(i8* getelementptr inbounds ([3 x i8], [3 x i8]* @.str, i64 0, i64 0), i32* %1)
  %4 = load i32, i32* %1, align 4
  %5 = icmp sle i32 %4, 4
  br i1 %5, label %6, label %8

6:                                                ; preds = %0
  %7 = call i32 (i8*, ...) @printf(i8* getelementptr inbounds ([7 x i8], [7 x i8]* @.str.1, i64 0, i64 0))
  br label %32

8:                                                ; preds = %0
  store i32 3, i32* %2, align 4
  br label %9

9:                                                ; preds = %28, %8
  %10 = load i32, i32* %2, align 4
  %11 = load i32, i32* %1, align 4
  %12 = sub nsw i32 %11, 1
  %13 = icmp slt i32 %10, %12
  br i1 %13, label %14, label %31

14:                                               ; preds = %9
  %15 = load i32, i32* %2, align 4
  %16 = call i32 @sushu(i32 %15)
  %17 = load i32, i32* %2, align 4
  %18 = add nsw i32 %17, 2
  %19 = call i32 @sushu(i32 %18)
  %20 = add nsw i32 %16, %19
  %21 = icmp eq i32 %20, 2
  br i1 %21, label %22, label %27

22:                                               ; preds = %14
  %23 = load i32, i32* %2, align 4
  %24 = load i32, i32* %2, align 4
  %25 = add nsw i32 %24, 2
  %26 = call i32 (i8*, ...) @printf(i8* getelementptr inbounds ([7 x i8], [7 x i8]* @.str.2, i64 0, i64 0), i32 %23, i32 %25)
  br label %27

27:                                               ; preds = %22, %14
  br label %28

28:                                               ; preds = %27
  %29 = load i32, i32* %2, align 4
  %30 = add nsw i32 %29, 1
  store i32 %30, i32* %2, align 4
  br label %9

31:                                               ; preds = %9
  br label %32

32:                                               ; preds = %31, %6
  ret void
}

declare dso_local i32 @__isoc99_scanf(i8*, ...) #1

declare dso_local i32 @printf(i8*, ...) #1


!llvm.module.flags = !{!0}
!llvm.ident = !{!1}

!0 = !{i32 1, !"wchar_size", i32 4}
!1 = !{!"clang version 10.0.0-4ubuntu1 "}
