; ModuleID = 'source-C-CXX/59/1083.c'
source_filename = "source-C-CXX/59/1083.c"
target datalayout = "e-m:e-p270:32:32-p271:32:32-p272:64:64-i64:64-f80:128-n8:16:32:64-S128"
target triple = "x86_64-pc-linux-gnu"

@.str = private unnamed_addr constant [3 x i8] c"%d\00", align 1
@.str.2 = private unnamed_addr constant [7 x i8] c"%d %d\0A\00", align 1
@str = private unnamed_addr constant [6 x i8] c"empty\00", align 1

; Function Attrs: nofree norecurse nosync nounwind readnone sspstrong uwtable
define dso_local i32 @sushu(i32 %0) local_unnamed_addr #0 {
  %2 = icmp sgt i32 %0, 2
  br i1 %2, label %5, label %10

3:                                                ; preds = %5
  %4 = icmp eq i32 %9, %0
  br i1 %4, label %10, label %5, !llvm.loop !5

5:                                                ; preds = %1, %3
  %6 = phi i32 [ %9, %3 ], [ 2, %1 ]
  %7 = srem i32 %0, %6
  %8 = icmp eq i32 %7, 0
  %9 = add nuw nsw i32 %6, 1
  br i1 %8, label %10, label %3

10:                                               ; preds = %3, %5, %1
  %11 = phi i32 [ 1, %1 ], [ 0, %5 ], [ 1, %3 ]
  ret i32 %11
}

; Function Attrs: argmemonly mustprogress nofree nosync nounwind willreturn
declare void @llvm.lifetime.start.p0i8(i64 immarg, i8* nocapture) #1

; Function Attrs: argmemonly mustprogress nofree nosync nounwind willreturn
declare void @llvm.lifetime.end.p0i8(i64 immarg, i8* nocapture) #1

; Function Attrs: nofree nounwind sspstrong uwtable
define dso_local void @main() local_unnamed_addr #2 {
  %1 = alloca i32, align 4
  %2 = bitcast i32* %1 to i8*
  call void @llvm.lifetime.start.p0i8(i64 4, i8* nonnull %2) #5
  %3 = call i32 (i8*, ...) @__isoc99_scanf(i8* getelementptr inbounds ([3 x i8], [3 x i8]* @.str, i64 0, i64 0), i32* nonnull %1)
  %4 = load i32, i32* %1, align 4, !tbaa !7
  %5 = icmp slt i32 %4, 5
  br i1 %5, label %6, label %8

6:                                                ; preds = %0
  %7 = call i32 @puts(i8* nonnull dereferenceable(1) getelementptr inbounds ([6 x i8], [6 x i8]* @str, i64 0, i64 0))
  br label %40

8:                                                ; preds = %0, %35
  %9 = phi i32 [ %36, %35 ], [ %4, %0 ]
  %10 = phi i32 [ %37, %35 ], [ 3, %0 ]
  br label %13

11:                                               ; preds = %13
  %12 = icmp eq i32 %17, %10
  br i1 %12, label %18, label %13, !llvm.loop !5

13:                                               ; preds = %8, %11
  %14 = phi i32 [ %17, %11 ], [ 2, %8 ]
  %15 = urem i32 %10, %14
  %16 = icmp eq i32 %15, 0
  %17 = add nuw nsw i32 %14, 1
  br i1 %16, label %18, label %11

18:                                               ; preds = %11, %13
  %19 = phi i32 [ 0, %13 ], [ 1, %11 ]
  %20 = add nuw nsw i32 %10, 2
  br label %23

21:                                               ; preds = %23
  %22 = icmp eq i32 %27, %20
  br i1 %22, label %28, label %23, !llvm.loop !5

23:                                               ; preds = %21, %18
  %24 = phi i32 [ %27, %21 ], [ 2, %18 ]
  %25 = urem i32 %20, %24
  %26 = icmp eq i32 %25, 0
  %27 = add nuw nsw i32 %24, 1
  br i1 %26, label %28, label %21

28:                                               ; preds = %21, %23
  %29 = phi i32 [ 0, %23 ], [ 1, %21 ]
  %30 = add nuw nsw i32 %29, %19
  %31 = icmp eq i32 %30, 2
  br i1 %31, label %32, label %35

32:                                               ; preds = %28
  %33 = call i32 (i8*, ...) @printf(i8* nonnull dereferenceable(1) getelementptr inbounds ([7 x i8], [7 x i8]* @.str.2, i64 0, i64 0), i32 %10, i32 %20)
  %34 = load i32, i32* %1, align 4, !tbaa !7
  br label %35

35:                                               ; preds = %28, %32
  %36 = phi i32 [ %9, %28 ], [ %34, %32 ]
  %37 = add nuw nsw i32 %10, 1
  %38 = add nsw i32 %36, -1
  %39 = icmp slt i32 %37, %38
  br i1 %39, label %8, label %40, !llvm.loop !11

40:                                               ; preds = %35, %6
  call void @llvm.lifetime.end.p0i8(i64 4, i8* nonnull %2) #5
  ret void
}

; Function Attrs: nofree nounwind
declare noundef i32 @__isoc99_scanf(i8* nocapture noundef readonly, ...) local_unnamed_addr #3

; Function Attrs: nofree nounwind
declare noundef i32 @printf(i8* nocapture noundef readonly, ...) local_unnamed_addr #3

; Function Attrs: nofree nounwind
declare noundef i32 @puts(i8* nocapture noundef readonly) local_unnamed_addr #4


!llvm.module.flags = !{!0, !1, !2, !3}
!llvm.ident = !{!4}

!0 = !{i32 1, !"wchar_size", i32 4}
!1 = !{i32 7, !"PIC Level", i32 2}
!2 = !{i32 7, !"PIE Level", i32 2}
!3 = !{i32 7, !"uwtable", i32 1}
!4 = !{!"clang version 13.0.0"}
!5 = distinct !{!5, !6}
!6 = !{!"llvm.loop.mustprogress"}
!7 = !{!8, !8, i64 0}
!8 = !{!"int", !9, i64 0}
!9 = !{!"omnipotent char", !10, i64 0}
!10 = !{!"Simple C/C++ TBAA"}
!11 = distinct !{!11, !6}
